target datalayout = "e-m:e-p270:32:32-p271:32:32-p272:64:64-i64:64-i128:128-f80:128-n8:16:32:64-S128"
target triple = "x86_64-pc-linux-gnu"

%struct.tsd_s = type { i8, i8, i64, i64, i64, i64, i64, i64, i64, i64, i64, i64, i64, i64, ptr, i64, i64, i64, ptr, ptr, %struct.ticker_geom_s, i8, %struct.tsd_binshards_s, %struct.tsd_link_t, i8, %struct.peak_s, %struct.activity_callback_thunk_s, %struct.tcache_slow_s, %struct.rtree_ctx_s, %struct.atomic_u8_t, i64, i64, i64, i64, %struct.tcache_s, %struct.witness_tsd_s }
%struct.ticker_geom_s = type { i32, i32 }
%struct.tsd_binshards_s = type { [39 x i8] }
%struct.tsd_link_t = type { ptr, ptr }
%struct.peak_s = type { i64, i64 }
%struct.activity_callback_thunk_s = type { ptr, ptr }
%struct.tcache_slow_s = type { %struct.anon.2, %struct.cache_bin_array_descriptor_s, ptr, i32, [39 x i8], [39 x i8], [39 x i8], ptr, ptr }
%struct.anon.2 = type { ptr, ptr }
%struct.cache_bin_array_descriptor_s = type { %struct.anon.3, ptr }
%struct.anon.3 = type { ptr, ptr }
%struct.rtree_ctx_s = type { [16 x %struct.rtree_ctx_cache_elm_s], [8 x %struct.rtree_ctx_cache_elm_s] }
%struct.rtree_ctx_cache_elm_s = type { i64, ptr }
%struct.atomic_u8_t = type { i8 }
%struct.tcache_s = type { ptr, [76 x %struct.cache_bin_s] }
%struct.cache_bin_s = type { ptr, %struct.cache_bin_stats_s, i16, i16, i16 }
%struct.cache_bin_stats_s = type { i64 }
%struct.witness_tsd_s = type { %struct.witness_list_t, i8 }
%struct.witness_list_t = type { ptr }
%struct.edata_s = type { i64, ptr, %union.anon.4, ptr, i64, %union.anon.5, %union.anon.8 }
%union.anon.4 = type { i64 }
%union.anon.5 = type { %union.anon.7 }
%union.anon.7 = type { %struct.edata_heap_link_t }
%struct.edata_heap_link_t = type { %struct.phn_link_s }
%struct.phn_link_s = type { ptr, ptr, ptr }
%union.anon.8 = type { %struct.slab_data_s }
%struct.slab_data_s = type { [8 x i64] }
%struct.tsdn_s = type { %struct.tsd_s }

; Function Attrs: alwaysinline nounwind uwtable
define internal ptr @tsd_witness_tsdp_get_unsafe(ptr noundef %0) #1 {
  %2 = alloca ptr, align 8
  store ptr %0, ptr %2, align 8, !tbaa !28
  %3 = load ptr, ptr %2, align 8, !tbaa !28
  %4 = getelementptr inbounds nuw %struct.tsd_s, ptr %3, i32 0, i32 35
  ret ptr %4
}

; Function Attrs: alwaysinline nounwind uwtable
define internal zeroext i8 @tsd_state_get(ptr noundef %0) #1 {
  %2 = alloca ptr, align 8
  store ptr %0, ptr %2, align 8, !tbaa !28
  %3 = load ptr, ptr %2, align 8, !tbaa !28
  %4 = getelementptr inbounds nuw %struct.tsd_s, ptr %3, i32 0, i32 29
  %5 = load i8, ptr %4, align 8, !tbaa !63
  ret i8 %5
}

; Function Attrs: alwaysinline nounwind uwtable
define internal ptr @tsd_witness_tsdp_get(ptr noundef %0) #1 {
  %2 = alloca ptr, align 8
  %3 = alloca i8, align 1
  store ptr %0, ptr %2, align 8, !tbaa !28
  call void @llvm.lifetime.start.p0(i64 1, ptr %3) #9
  %4 = load ptr, ptr %2, align 8, !tbaa !28
  %5 = call zeroext i8 @tsd_state_get(ptr noundef %4)
  store i8 %5, ptr %3, align 1, !tbaa !63
  br label %6

6:                                                ; preds = %1
  br label %7

7:                                                ; preds = %6
  br label %8

8:                                                ; preds = %7
  %9 = load ptr, ptr %2, align 8, !tbaa !28
  %10 = call ptr @tsd_witness_tsdp_get_unsafe(ptr noundef %9)
  call void @llvm.lifetime.end.p0(i64 1, ptr %3) #9
  ret ptr %10
}

; Function Attrs: alwaysinline nounwind uwtable
define internal ptr @tsdn_tsd(ptr noundef %0) #1 {
  %2 = alloca ptr, align 8
  store ptr %0, ptr %2, align 8, !tbaa !14
  br label %3

3:                                                ; preds = %1
  br label %4

4:                                                ; preds = %3
  %5 = load ptr, ptr %2, align 8, !tbaa !14
  %6 = getelementptr inbounds nuw %struct.tsdn_s, ptr %5, i32 0, i32 0
  ret ptr %6
}

; Function Attrs: alwaysinline nounwind uwtable
define internal zeroext i1 @tsdn_null(ptr noundef %0) #1 {
  %2 = alloca ptr, align 8
  store ptr %0, ptr %2, align 8, !tbaa !14
  %3 = load ptr, ptr %2, align 8, !tbaa !14
  %4 = icmp eq ptr %3, null
  ret i1 %4
}

; Function Attrs: inlinehint nounwind uwtable
define internal void @edata_zeroed_set(ptr noundef %0, i1 noundef zeroext %1) #2 {
  %3 = alloca ptr, align 8
  %4 = alloca i8, align 1
  store ptr %0, ptr %3, align 8, !tbaa !20
  %5 = zext i1 %1 to i8
  store i8 %5, ptr %4, align 1, !tbaa !22
  %6 = load ptr, ptr %3, align 8, !tbaa !20
  %7 = getelementptr inbounds nuw %struct.edata_s, ptr %6, i32 0, i32 0
  %8 = load i64, ptr %7, align 8, !tbaa !52
  %9 = and i64 %8, -32769
  %10 = load i8, ptr %4, align 1, !tbaa !22, !range !24, !noundef !25
  %11 = trunc i8 %10 to i1
  %12 = zext i1 %11 to i64
  %13 = shl i64 %12, 15
  %14 = or i64 %9, %13
  %15 = load ptr, ptr %3, align 8, !tbaa !20
  %16 = getelementptr inbounds nuw %struct.edata_s, ptr %15, i32 0, i32 0
  store i64 %14, ptr %16, align 8, !tbaa !52
  ret void
}

; Function Attrs: inlinehint nounwind uwtable
define internal void @edata_addr_set(ptr noundef %0, ptr noundef %1) #2 {
  %3 = alloca ptr, align 8
  %4 = alloca ptr, align 8
  store ptr %0, ptr %3, align 8, !tbaa !20
  store ptr %1, ptr %4, align 8, !tbaa !9
  %5 = load ptr, ptr %4, align 8, !tbaa !9
  %6 = load ptr, ptr %3, align 8, !tbaa !20
  %7 = getelementptr inbounds nuw %struct.edata_s, ptr %6, i32 0, i32 1
  store ptr %5, ptr %7, align 8, !tbaa !49
  ret void
}

; Function Attrs: inlinehint nounwind uwtable
define internal ptr @edata_base_get(ptr noundef %0) #2 {
  %2 = alloca ptr, align 8
  store ptr %0, ptr %2, align 8, !tbaa !20
  br label %3

3:                                                ; preds = %1
  br label %4

4:                                                ; preds = %3
  %5 = load ptr, ptr %2, align 8, !tbaa !20
  %6 = getelementptr inbounds nuw %struct.edata_s, ptr %5, i32 0, i32 1
  %7 = load ptr, ptr %6, align 8, !tbaa !49
  %8 = ptrtoint ptr %7 to i64
  %9 = and i64 %8, -4096
  %10 = inttoptr i64 %9 to ptr
  ret ptr %10
}

; Function Attrs: inlinehint nounwind uwtable
define internal void @witness_assert_depth_to_rank(ptr noundef %0, i32 noundef %1, i32 noundef %2) #2 {
  %4 = alloca ptr, align 8
  %5 = alloca i32, align 4
  %6 = alloca i32, align 4
  store ptr %0, ptr %4, align 8, !tbaa !26
  store i32 %1, ptr %5, align 4, !tbaa !12
  store i32 %2, ptr %6, align 4, !tbaa !12
  ret void
}

; Function Attrs: alwaysinline nounwind uwtable
define internal ptr @tsdn_witness_tsdp_get(ptr noundef %0) #1 {
  %2 = alloca ptr, align 8
  %3 = alloca ptr, align 8
  %4 = alloca ptr, align 8
  store ptr %0, ptr %3, align 8, !tbaa !14
  %5 = load ptr, ptr %3, align 8, !tbaa !14
  %6 = call zeroext i1 @tsdn_null(ptr noundef %5)
  br i1 %6, label %7, label %8

7:                                                ; preds = %1
  store ptr null, ptr %2, align 8
  br label %13

8:                                                ; preds = %1
  call void @llvm.lifetime.start.p0(i64 8, ptr %4) #9
  %9 = load ptr, ptr %3, align 8, !tbaa !14
  %10 = call ptr @tsdn_tsd(ptr noundef %9)
  store ptr %10, ptr %4, align 8, !tbaa !28
  %11 = load ptr, ptr %4, align 8, !tbaa !28
  %12 = call ptr @tsd_witness_tsdp_get(ptr noundef %11)
  store ptr %12, ptr %2, align 8
  call void @llvm.lifetime.end.p0(i64 8, ptr %4) #9
  br label %13

13:                                               ; preds = %8, %7
  %14 = load ptr, ptr %2, align 8
  ret ptr %14
}

; Function Attrs: nounwind uwtable
define hidden void @je_ecache_dalloc(ptr noundef %0, ptr noundef %1, ptr noundef %2, ptr noundef %3, ptr noundef %4) #0 {
  %6 = alloca ptr, align 8
  %7 = alloca ptr, align 8
  %8 = alloca ptr, align 8
  %9 = alloca ptr, align 8
  %10 = alloca ptr, align 8
  store ptr %0, ptr %6, align 8, !tbaa !14
  store ptr %1, ptr %7, align 8, !tbaa !4
  store ptr %2, ptr %8, align 8, !tbaa !16
  store ptr %3, ptr %9, align 8, !tbaa !18
  store ptr %4, ptr %10, align 8, !tbaa !20
  br label %11

11:                                               ; preds = %5
  br label %12

12:                                               ; preds = %11
  br label %13

13:                                               ; preds = %12
  br label %14

14:                                               ; preds = %13
  br label %15

15:                                               ; preds = %14
  br label %16

16:                                               ; preds = %15
  %17 = load ptr, ptr %6, align 8, !tbaa !14
  %18 = call ptr @tsdn_witness_tsdp_get(ptr noundef %17)
  call void @witness_assert_depth_to_rank(ptr noundef %18, i32 noundef 14, i32 noundef 0)
  %19 = load ptr, ptr %10, align 8, !tbaa !20
  %20 = load ptr, ptr %10, align 8, !tbaa !20
  %21 = call ptr @edata_base_get(ptr noundef %20)
  call void @edata_addr_set(ptr noundef %19, ptr noundef %21)
  %22 = load ptr, ptr %10, align 8, !tbaa !20
  call void @edata_zeroed_set(ptr noundef %22, i1 noundef zeroext false)
  %23 = load ptr, ptr %6, align 8, !tbaa !14
  %24 = load ptr, ptr %7, align 8, !tbaa !4
  %25 = load ptr, ptr %8, align 8, !tbaa !16
  %26 = load ptr, ptr %9, align 8, !tbaa !18
  %27 = load ptr, ptr %10, align 8, !tbaa !20
  call void @je_extent_record(ptr noundef %23, ptr noundef %24, ptr noundef %25, ptr noundef %26, ptr noundef %27)
  ret void
}