; Function Attrs: nounwind uwtable
define hidden void @je_ecache_dalloc(ptr noundef %0, ptr noundef %1, ptr noundef %2, ptr noundef %3, ptr noundef %4) local_unnamed_addr #1 {
tsdn_witness_tsdp_get.exit:
  %5 = getelementptr i8, ptr %4, i64 8
  %.val = load ptr, ptr %5, align 8, !tbaa !40
  %6 = ptrtoint ptr %.val to i64
  %7 = and i64 %6, -4096
  %8 = inttoptr i64 %7 to ptr
  store ptr %8, ptr %5, align 8, !tbaa !40
  %9 = load i64, ptr %4, align 8, !tbaa !43
  %10 = and i64 %9, -32769
  store i64 %10, ptr %4, align 8, !tbaa !43
  tail call void @je_extent_record(ptr noundef %0, ptr noundef %1, ptr noundef %2, ptr noundef %3, ptr noundef nonnull %4)
  ret void
}